; Function Attrs: mustprogress nofree norecurse nosync nounwind willreturn memory(argmem: readwrite) uwtable
define void @_ZN32pxrInternal_v0_24__pxrReserved__10GfMatrix4f18_SetRotateFromQuatEfRKNS_7GfVec3fE(ptr noundef nonnull writeonly align 4 captures(none) dereferenceable(64) initializes((0, 12), (16, 28), (32, 44)) %0, float noundef %1, ptr noundef nonnull readonly align 4 captures(none) dereferenceable(12) %2) local_unnamed_addr #2 align 2 {
  %4 = getelementptr inbounds nuw i8, ptr %2, i64 4
  %5 = load float, ptr %4, align 4
  %6 = getelementptr inbounds nuw i8, ptr %2, i64 8
  %7 = load float, ptr %6, align 4
  %8 = fmul float %7, %7
  %9 = tail call float @llvm.fmuladd.f32(float %5, float %5, float %8)
  %10 = fpext float %9 to double
  %11 = tail call double @llvm.fmuladd.f64(double %10, double -2.000000e+00, double 1.000000e+00)
  %12 = fptrunc double %11 to float
  store float %12, ptr %0, align 4
  %13 = load float, ptr %2, align 4
  %14 = load float, ptr %4, align 4
  %15 = load float, ptr %6, align 4
  %16 = fmul float %1, %15
  %17 = tail call float @llvm.fmuladd.f32(float %13, float %14, float %16)
  %18 = fmul float %17, 2.000000e+00
  %19 = getelementptr inbounds nuw i8, ptr %0, i64 4
  store float %18, ptr %19, align 4
  %20 = load float, ptr %6, align 4
  %21 = load float, ptr %2, align 4
  %22 = load float, ptr %4, align 4
  %23 = fneg float %1
  %24 = fmul float %22, %23
  %25 = tail call float @llvm.fmuladd.f32(float %20, float %21, float %24)
  %26 = fmul float %25, 2.000000e+00
  %27 = getelementptr inbounds nuw i8, ptr %0, i64 8
  store float %26, ptr %27, align 4
  %28 = load float, ptr %2, align 4
  %29 = load float, ptr %4, align 4
  %30 = load float, ptr %6, align 4
  %31 = fmul float %30, %23
  %32 = tail call float @llvm.fmuladd.f32(float %28, float %29, float %31)
  %33 = fmul float %32, 2.000000e+00
  %34 = getelementptr inbounds nuw i8, ptr %0, i64 16
  store float %33, ptr %34, align 4
  %35 = load float, ptr %6, align 4
  %36 = load float, ptr %2, align 4
  %37 = fmul float %36, %36
  %38 = tail call float @llvm.fmuladd.f32(float %35, float %35, float %37)
  %39 = fpext float %38 to double
  %40 = tail call double @llvm.fmuladd.f64(double %39, double -2.000000e+00, double 1.000000e+00)
  %41 = fptrunc double %40 to float
  %42 = getelementptr inbounds nuw i8, ptr %0, i64 20
  store float %41, ptr %42, align 4
  %43 = load float, ptr %4, align 4
  %44 = load float, ptr %6, align 4
  %45 = load float, ptr %2, align 4
  %46 = fmul float %1, %45
  %47 = tail call float @llvm.fmuladd.f32(float %43, float %44, float %46)
  %48 = fmul float %47, 2.000000e+00
  %49 = getelementptr inbounds nuw i8, ptr %0, i64 24
  store float %48, ptr %49, align 4
  %50 = load float, ptr %6, align 4
  %51 = load float, ptr %2, align 4
  %52 = load float, ptr %4, align 4
  %53 = fmul float %1, %52
  %54 = tail call float @llvm.fmuladd.f32(float %50, float %51, float %53)
  %55 = fmul float %54, 2.000000e+00
  %56 = getelementptr inbounds nuw i8, ptr %0, i64 32
  store float %55, ptr %56, align 4
  %57 = load float, ptr %4, align 4
  %58 = load float, ptr %6, align 4
  %59 = load float, ptr %2, align 4
  %60 = fmul float %59, %23
  %61 = tail call float @llvm.fmuladd.f32(float %57, float %58, float %60)
  %62 = fmul float %61, 2.000000e+00
  %63 = getelementptr inbounds nuw i8, ptr %0, i64 36
  store float %62, ptr %63, align 4
  %64 = load float, ptr %4, align 4
  %65 = load float, ptr %2, align 4
  %66 = fmul float %65, %65
  %67 = tail call float @llvm.fmuladd.f32(float %64, float %64, float %66)
  %68 = fpext float %67 to double
  %69 = tail call double @llvm.fmuladd.f64(double %68, double -2.000000e+00, double 1.000000e+00)
  %70 = fptrunc double %69 to float
  %71 = getelementptr inbounds nuw i8, ptr %0, i64 40
  store float %70, ptr %71, align 4
  ret void
}